target datalayout = "e-m:e-p270:32:32-p271:32:32-p272:64:64-i64:64-i128:128-f80:128-n8:16:32:64-S128"
target triple = "x86_64-pc-linux-gnu"

%struct.expert_field = type { i32, i32 }
%struct._packet_info = type { ptr, ptr, i32, i32, %struct.nstime_t, %struct.nstime_t, %struct.nstime_t, i8, ptr, ptr, ptr, ptr, %struct._address, %struct._address, %struct._address, %struct._address, %struct._address, %struct._address, i32, ptr, i8, [3 x i8], %struct.anon, i32, i32, i32, i32, ptr, i8, ptr, ptr, i16, i16, i32, i32, i16, i32, i32, ptr, ptr, ptr, i8, i8, i16, i16, i16, i32, i16, i16, ptr, ptr, ptr, ptr, ptr, i32, i32 }
%struct.nstime_t = type { i64, i32 }
%struct._address = type { i32, i32, ptr, ptr }
%struct.anon = type { i8, [3 x i8] }
%struct.wscbor_chunk_t = type { ptr, i32, i32, i32, ptr, ptr, i32, i8, i64 }
%struct.wscbor_tag_t = type { i32, i32, i64 }

@proto_cose = internal global i32 0, align 4
@table_cose_msg_tag = internal global ptr null, align 8
@ei_invalid_tag = internal global %struct.expert_field zeroinitializer, align 4

; Function Attrs: null_pointer_is_valid sspstrong uwtable
define internal i32 @dissect_cose_msg_tagged(ptr noundef %0, ptr noundef %1, ptr noundef %2, ptr noundef %3) #0 {
  %5 = alloca i32, align 4
  %6 = alloca ptr, align 8
  %7 = alloca ptr, align 8
  %8 = alloca ptr, align 8
  %9 = alloca ptr, align 8
  %10 = alloca i32, align 4
  %11 = alloca ptr, align 8
  %12 = alloca ptr, align 8
  %13 = alloca i32, align 4
  %14 = alloca ptr, align 8
  %15 = alloca ptr, align 8
  %16 = alloca i32, align 4
  %17 = alloca ptr, align 8
  store ptr %0, ptr %6, align 8
  store ptr %1, ptr %7, align 8
  store ptr %2, ptr %8, align 8
  store ptr %3, ptr %9, align 8
  call void @llvm.lifetime.start.p0(i64 4, ptr %10) #12
  store i32 0, ptr %10, align 4
  call void @llvm.lifetime.start.p0(i64 8, ptr %11) #12
  %18 = load ptr, ptr %7, align 8
  %19 = getelementptr inbounds nuw %struct._packet_info, ptr %18, i32 0, i32 51
  %20 = load ptr, ptr %19, align 8
  %21 = load ptr, ptr %6, align 8
  %22 = call ptr @wscbor_chunk_read(ptr noundef %20, ptr noundef %21, ptr noundef %10)
  store ptr %22, ptr %11, align 8
  call void @llvm.lifetime.start.p0(i64 8, ptr %12) #12
  %23 = load ptr, ptr %11, align 8
  %24 = getelementptr inbounds nuw %struct.wscbor_chunk_t, ptr %23, i32 0, i32 5
  %25 = load ptr, ptr %24, align 8
  %26 = call ptr @wmem_list_head(ptr noundef %25)
  store ptr %26, ptr %12, align 8
  br label %27

27:                                               ; preds = %57, %4
  %28 = load ptr, ptr %12, align 8
  %29 = icmp ne ptr %28, null
  br i1 %29, label %31, label %30

30:                                               ; preds = %27
  store i32 2, ptr %13, align 4
  br label %60

31:                                               ; preds = %27
  call void @llvm.lifetime.start.p0(i64 8, ptr %14) #12
  %32 = load ptr, ptr %12, align 8
  %33 = call ptr @wmem_list_frame_data(ptr noundef %32)
  store ptr %33, ptr %14, align 8
  call void @llvm.lifetime.start.p0(i64 8, ptr %15) #12
  %34 = load ptr, ptr @table_cose_msg_tag, align 8
  %35 = load ptr, ptr %14, align 8
  %36 = getelementptr inbounds nuw %struct.wscbor_tag_t, ptr %35, i32 0, i32 2
  %37 = call ptr @dissector_get_custom_table_handle(ptr noundef %34, ptr noundef %36)
  store ptr %37, ptr %15, align 8
  %38 = load ptr, ptr %15, align 8
  %39 = icmp ne ptr %38, null
  br i1 %39, label %41, label %40

40:                                               ; preds = %31
  store i32 4, ptr %13, align 4
  br label %54

41:                                               ; preds = %31
  call void @llvm.lifetime.start.p0(i64 4, ptr %16) #12
  %42 = load ptr, ptr %15, align 8
  %43 = load ptr, ptr %6, align 8
  %44 = load ptr, ptr %7, align 8
  %45 = load ptr, ptr %8, align 8
  %46 = load ptr, ptr %14, align 8
  %47 = call i32 @call_dissector_only(ptr noundef %42, ptr noundef %43, ptr noundef %44, ptr noundef %45, ptr noundef %46)
  store i32 %47, ptr %16, align 4
  %48 = load i32, ptr %16, align 4
  %49 = icmp sgt i32 %48, 0
  br i1 %49, label %50, label %52

50:                                               ; preds = %41
  %51 = load i32, ptr %16, align 4
  store i32 %51, ptr %5, align 4
  store i32 1, ptr %13, align 4
  br label %53

52:                                               ; preds = %41
  store i32 0, ptr %13, align 4
  br label %53

53:                                               ; preds = %52, %50
  call void @llvm.lifetime.end.p0(i64 4, ptr %16) #12
  br label %54

54:                                               ; preds = %53, %40
  call void @llvm.lifetime.end.p0(i64 8, ptr %15) #12
  call void @llvm.lifetime.end.p0(i64 8, ptr %14) #12
  %55 = load i32, ptr %13, align 4
  switch i32 %55, label %60 [
    i32 0, label %56
    i32 4, label %57
  ]

56:                                               ; preds = %54
  br label %57

57:                                               ; preds = %56, %54
  %58 = load ptr, ptr %12, align 8
  %59 = call ptr @wmem_list_frame_next(ptr noundef %58)
  store ptr %59, ptr %12, align 8
  br label %27, !llvm.loop !6

60:                                               ; preds = %54, %30
  call void @llvm.lifetime.end.p0(i64 8, ptr %12) #12
  %61 = load i32, ptr %13, align 4
  switch i32 %61, label %70 [
    i32 2, label %62
  ]

62:                                               ; preds = %60
  call void @llvm.lifetime.start.p0(i64 8, ptr %17) #12
  %63 = load ptr, ptr %8, align 8
  %64 = load i32, ptr @proto_cose, align 4
  %65 = load ptr, ptr %6, align 8
  %66 = call ptr @proto_tree_add_item(ptr noundef %63, i32 noundef %64, ptr noundef %65, i32 noundef 0, i32 noundef -1, i32 noundef 0)
  store ptr %66, ptr %17, align 8
  %67 = load ptr, ptr %7, align 8
  %68 = load ptr, ptr %17, align 8
  %69 = call ptr @expert_add_info(ptr noundef %67, ptr noundef %68, ptr noundef @ei_invalid_tag)
  store i32 -1, ptr %5, align 4
  store i32 1, ptr %13, align 4
  call void @llvm.lifetime.end.p0(i64 8, ptr %17) #12
  br label %70

70:                                               ; preds = %62, %60
  call void @llvm.lifetime.end.p0(i64 8, ptr %11) #12
  call void @llvm.lifetime.end.p0(i64 4, ptr %10) #12
  %71 = load i32, ptr %5, align 4
  ret i32 %71
}