; Function Attrs: null_pointer_is_valid sspstrong uwtable
define internal range(i32 -1, -2147483648) i32 @dissect_cose_msg_tagged(ptr noundef %0, ptr noundef %1, ptr noundef %2, ptr readnone captures(none) %3) #0 {
  %5 = alloca i32, align 4
  call void @llvm.lifetime.start.p0(i64 4, ptr nonnull %5) #8
  store i32 0, ptr %5, align 4
  %6 = getelementptr inbounds nuw i8, ptr %1, i64 408
  %7 = load ptr, ptr %6, align 8
  %8 = call ptr @wscbor_chunk_read(ptr noundef %7, ptr noundef %0, ptr noundef nonnull %5)
  %9 = getelementptr inbounds nuw i8, ptr %8, i64 32
  %10 = load ptr, ptr %9, align 8
  %11 = call ptr @wmem_list_head(ptr noundef %10)
  %.not33 = icmp eq ptr %11, null
  br i1 %.not33, label %._crit_edge, label %.lr.ph

.lr.ph:                                           ; preds = %4, %19
  %.02134 = phi ptr [ %20, %19 ], [ %11, %4 ]
  %12 = call ptr @wmem_list_frame_data(ptr noundef nonnull %.02134)
  %13 = load ptr, ptr @table_cose_msg_tag, align 8
  %14 = getelementptr inbounds nuw i8, ptr %12, i64 8
  %15 = call ptr @dissector_get_custom_table_handle(ptr noundef %13, ptr noundef nonnull %14)
  %.not27 = icmp eq ptr %15, null
  br i1 %.not27, label %19, label %16

16:                                               ; preds = %.lr.ph
  %17 = call i32 @call_dissector_only(ptr noundef nonnull %15, ptr noundef %0, ptr noundef %1, ptr noundef %2, ptr noundef %12)
  %18 = icmp sgt i32 %17, 0
  br i1 %18, label %.loopexit, label %19

19:                                               ; preds = %16, %.lr.ph
  %20 = call ptr @wmem_list_frame_next(ptr noundef nonnull %.02134)
  %.not = icmp eq ptr %20, null
  br i1 %.not, label %._crit_edge, label %.lr.ph, !llvm.loop !6

._crit_edge:                                      ; preds = %19, %4
  %21 = load i32, ptr @proto_cose, align 4
  %22 = call ptr @proto_tree_add_item(ptr noundef %2, i32 noundef %21, ptr noundef %0, i32 noundef 0, i32 noundef -1, i32 noundef 0)
  %23 = call ptr @expert_add_info(ptr noundef %1, ptr noundef %22, ptr noundef nonnull @ei_invalid_tag)
  br label %.loopexit

.loopexit:                                        ; preds = %16, %._crit_edge
  %.4 = phi i32 [ -1, %._crit_edge ], [ %17, %16 ]
  call void @llvm.lifetime.end.p0(i64 4, ptr nonnull %5) #8
  ret i32 %.4
}